target datalayout = "e-m:e-p270:32:32-p271:32:32-p272:64:64-i64:64-i128:128-f80:128-n8:16:32:64-S128"
target triple = "x86_64-pc-linux-gnu"

%"struct.url::Component" = type { i32, i32 }

; Function Attrs: mustprogress nounwind uwtable
define linkonce_odr void @_ZN3url9ComponentC2Eii(ptr noundef nonnull align 4 dereferenceable(8) %0, i32 noundef %1, i32 noundef %2) unnamed_addr #1 comdat align 2 {
  %4 = alloca ptr, align 8
  %5 = alloca i32, align 4
  %6 = alloca i32, align 4
  store ptr %0, ptr %4, align 8, !tbaa !12
  store i32 %1, ptr %5, align 4, !tbaa !17
  store i32 %2, ptr %6, align 4, !tbaa !17
  %7 = load ptr, ptr %4, align 8
  %8 = getelementptr inbounds nuw %"struct.url::Component", ptr %7, i32 0, i32 0
  %9 = load i32, ptr %5, align 4, !tbaa !17
  store i32 %9, ptr %8, align 4, !tbaa !14
  %10 = getelementptr inbounds nuw %"struct.url::Component", ptr %7, i32 0, i32 1
  %11 = load i32, ptr %6, align 4, !tbaa !17
  store i32 %11, ptr %10, align 4, !tbaa !15
  ret void
}

; Function Attrs: inlinehint mustprogress uwtable
define linkonce_odr i64 @_ZN3url9MakeRangeEii(i32 noundef %0, i32 noundef %1) #7 comdat {
  %3 = alloca %"struct.url::Component", align 4
  %4 = alloca i32, align 4
  %5 = alloca i32, align 4
  store i32 %0, ptr %4, align 4, !tbaa !17
  store i32 %1, ptr %5, align 4, !tbaa !17
  %6 = load i32, ptr %4, align 4, !tbaa !17
  %7 = load i32, ptr %5, align 4, !tbaa !17
  %8 = load i32, ptr %4, align 4, !tbaa !17
  %9 = sub nsw i32 %7, %8
  call void @_ZN3url9ComponentC2Eii(ptr noundef nonnull align 4 dereferenceable(8) %3, i32 noundef %6, i32 noundef %9)
  %10 = load i64, ptr %3, align 4
  ret i64 %10
}

; Function Attrs: inlinehint mustprogress nounwind uwtable
define linkonce_odr noundef zeroext i1 @_ZN3url17ShouldTrimFromURLEt(i16 noundef zeroext %0) #5 comdat {
  %2 = alloca i16, align 2
  store i16 %0, ptr %2, align 2, !tbaa !40
  %3 = load i16, ptr %2, align 2, !tbaa !40
  %4 = zext i16 %3 to i32
  %5 = icmp sle i32 %4, 32
  ret i1 %5
}

; Function Attrs: mustprogress uwtable
define internal noundef zeroext i1 @_ZN3url12_GLOBAL__N_115DoExtractSchemeItEEbPKT_iPNS_9ComponentE(ptr noundef %0, i32 noundef %1, ptr noundef %2) #0 {
  %4 = alloca i1, align 1
  %5 = alloca ptr, align 8
  %6 = alloca i32, align 4
  %7 = alloca ptr, align 8
  %8 = alloca i32, align 4
  %9 = alloca i32, align 4
  %10 = alloca i32, align 4
  %11 = alloca %"struct.url::Component", align 4
  store ptr %0, ptr %5, align 8, !tbaa !38
  store i32 %1, ptr %6, align 4, !tbaa !17
  store ptr %2, ptr %7, align 8, !tbaa !12
  call void @llvm.lifetime.start.p0(i64 4, ptr %8) #13
  store i32 0, ptr %8, align 4, !tbaa !17
  br label %12

12:                                               ; preds = %25, %3
  %13 = load i32, ptr %8, align 4, !tbaa !17
  %14 = load i32, ptr %6, align 4, !tbaa !17
  %15 = icmp slt i32 %13, %14
  br i1 %15, label %16, label %23

16:                                               ; preds = %12
  %17 = load ptr, ptr %5, align 8, !tbaa !38
  %18 = load i32, ptr %8, align 4, !tbaa !17
  %19 = sext i32 %18 to i64
  %20 = getelementptr inbounds i16, ptr %17, i64 %19
  %21 = load i16, ptr %20, align 2, !tbaa !40
  %22 = call noundef zeroext i1 @_ZN3url17ShouldTrimFromURLEt(i16 noundef zeroext %21)
  br label %23

23:                                               ; preds = %16, %12
  %24 = phi i1 [ false, %12 ], [ %22, %16 ]
  br i1 %24, label %25, label %28

25:                                               ; preds = %23
  %26 = load i32, ptr %8, align 4, !tbaa !17
  %27 = add nsw i32 %26, 1
  store i32 %27, ptr %8, align 4, !tbaa !17
  br label %12, !llvm.loop !42

28:                                               ; preds = %23
  %29 = load i32, ptr %8, align 4, !tbaa !17
  %30 = load i32, ptr %6, align 4, !tbaa !17
  %31 = icmp eq i32 %29, %30
  br i1 %31, label %32, label %33

32:                                               ; preds = %28
  store i1 false, ptr %4, align 1
  store i32 1, ptr %9, align 4
  br label %60

33:                                               ; preds = %28
  call void @llvm.lifetime.start.p0(i64 4, ptr %10) #13
  %34 = load i32, ptr %8, align 4, !tbaa !17
  store i32 %34, ptr %10, align 4, !tbaa !17
  br label %35

35:                                               ; preds = %54, %33
  %36 = load i32, ptr %10, align 4, !tbaa !17
  %37 = load i32, ptr %6, align 4, !tbaa !17
  %38 = icmp slt i32 %36, %37
  br i1 %38, label %40, label %39

39:                                               ; preds = %35
  store i32 4, ptr %9, align 4
  br label %57

40:                                               ; preds = %35
  %41 = load ptr, ptr %5, align 8, !tbaa !38
  %42 = load i32, ptr %10, align 4, !tbaa !17
  %43 = sext i32 %42 to i64
  %44 = getelementptr inbounds i16, ptr %41, i64 %43
  %45 = load i16, ptr %44, align 2, !tbaa !40
  %46 = zext i16 %45 to i32
  %47 = icmp eq i32 %46, 58
  br i1 %47, label %48, label %53

48:                                               ; preds = %40
  call void @llvm.lifetime.start.p0(i64 8, ptr %11) #13
  %49 = load i32, ptr %8, align 4, !tbaa !17
  %50 = load i32, ptr %10, align 4, !tbaa !17
  %51 = call i64 @_ZN3url9MakeRangeEii(i32 noundef %49, i32 noundef %50)
  store i64 %51, ptr %11, align 4
  %52 = load ptr, ptr %7, align 8, !tbaa !12
  call void @llvm.memcpy.p0.p0.i64(ptr align 4 %52, ptr align 4 %11, i64 8, i1 false), !tbaa.struct !16
  call void @llvm.lifetime.end.p0(i64 8, ptr %11) #13
  store i1 true, ptr %4, align 1
  store i32 1, ptr %9, align 4
  br label %57

53:                                               ; preds = %40
  br label %54

54:                                               ; preds = %53
  %55 = load i32, ptr %10, align 4, !tbaa !17
  %56 = add nsw i32 %55, 1
  store i32 %56, ptr %10, align 4, !tbaa !17
  br label %35, !llvm.loop !43

57:                                               ; preds = %48, %39
  call void @llvm.lifetime.end.p0(i64 4, ptr %10) #13
  %58 = load i32, ptr %9, align 4
  switch i32 %58, label %60 [
    i32 4, label %59
  ]

59:                                               ; preds = %57
  store i1 false, ptr %4, align 1
  store i32 1, ptr %9, align 4
  br label %60

60:                                               ; preds = %59, %57, %32
  call void @llvm.lifetime.end.p0(i64 4, ptr %8) #13
  %61 = load i1, ptr %4, align 1
  ret i1 %61
}

; Function Attrs: mustprogress uwtable
define noundef zeroext i1 @_ZN3url13ExtractSchemeEPKtiPNS_9ComponentE(ptr noundef %0, i32 noundef %1, ptr noundef %2) #0 {
  %4 = alloca ptr, align 8
  %5 = alloca i32, align 4
  %6 = alloca ptr, align 8
  store ptr %0, ptr %4, align 8, !tbaa !38
  store i32 %1, ptr %5, align 4, !tbaa !17
  store ptr %2, ptr %6, align 8, !tbaa !12
  %7 = load ptr, ptr %4, align 8, !tbaa !38
  %8 = load i32, ptr %5, align 4, !tbaa !17
  %9 = load ptr, ptr %6, align 8, !tbaa !12
  %10 = call noundef zeroext i1 @_ZN3url12_GLOBAL__N_115DoExtractSchemeItEEbPKT_iPNS_9ComponentE(ptr noundef %7, i32 noundef %8, ptr noundef %9)
  ret i1 %10
}