; Function Attrs: mustprogress nofree norecurse nosync nounwind memory(argmem: readwrite) uwtable
define noundef zeroext i1 @_ZN3url13ExtractSchemeEPKtiPNS_9ComponentE(ptr noundef readonly captures(none) %0, i32 noundef %1, ptr noundef writeonly captures(none) %2) local_unnamed_addr #6 {
  %4 = icmp sgt i32 %1, 0
  br i1 %4, label %.lr.ph.preheader.i, label %.critedge.i

.lr.ph.preheader.i:                               ; preds = %3
  %wide.trip.count.i = zext nneg i32 %1 to i64
  br label %.lr.ph.i

.lr.ph.i:                                         ; preds = %8, %.lr.ph.preheader.i
  %indvars.iv.i = phi i64 [ 0, %.lr.ph.preheader.i ], [ %indvars.iv.next.i, %8 ]
  %5 = getelementptr inbounds nuw i16, ptr %0, i64 %indvars.iv.i
  %6 = load i16, ptr %5, align 2, !tbaa !25
  %7 = icmp ult i16 %6, 33
  br i1 %7, label %8, label %.critedge.loopexit.i

8:                                                ; preds = %.lr.ph.i
  %indvars.iv.next.i = add nuw nsw i64 %indvars.iv.i, 1
  %exitcond.not.i = icmp eq i64 %indvars.iv.next.i, %wide.trip.count.i
  br i1 %exitcond.not.i, label %_ZN3url12_GLOBAL__N_115DoExtractSchemeItEEbPKT_iPNS_9ComponentE.exit, label %.lr.ph.i, !llvm.loop !27

.critedge.loopexit.i:                             ; preds = %.lr.ph.i
  %9 = trunc nuw nsw i64 %indvars.iv.i to i32
  br label %.critedge.i

.critedge.i:                                      ; preds = %.critedge.loopexit.i, %3
  %.019.lcssa.i = phi i32 [ 0, %3 ], [ %9, %.critedge.loopexit.i ]
  %.not25.i = icmp slt i32 %.019.lcssa.i, %1
  br i1 %.not25.i, label %.lr.ph27.preheader.i, label %_ZN3url12_GLOBAL__N_115DoExtractSchemeItEEbPKT_iPNS_9ComponentE.exit

.lr.ph27.preheader.i:                             ; preds = %.critedge.i
  %10 = zext i32 %.019.lcssa.i to i64
  %wide.trip.count = zext i32 %1 to i64
  br label %.lr.ph27.i

.lr.ph27.i:                                       ; preds = %17, %.lr.ph27.preheader.i
  %indvars.iv30.i = phi i64 [ %10, %.lr.ph27.preheader.i ], [ %indvars.iv.next31.i, %17 ]
  %11 = getelementptr inbounds nuw i16, ptr %0, i64 %indvars.iv30.i
  %12 = load i16, ptr %11, align 2, !tbaa !25
  %13 = icmp eq i16 %12, 58
  br i1 %13, label %14, label %17

14:                                               ; preds = %.lr.ph27.i
  %15 = trunc nuw i64 %indvars.iv30.i to i32
  %16 = sub nsw i32 %15, %.019.lcssa.i
  %.sroa.2.0.insert.ext.i.i = zext i32 %16 to i64
  %.sroa.2.0.insert.shift.i.i = shl nuw i64 %.sroa.2.0.insert.ext.i.i, 32
  %.sroa.0.0.insert.insert.i.i = or disjoint i64 %.sroa.2.0.insert.shift.i.i, %10
  store i64 %.sroa.0.0.insert.insert.i.i, ptr %2, align 4
  br label %_ZN3url12_GLOBAL__N_115DoExtractSchemeItEEbPKT_iPNS_9ComponentE.exit

17:                                               ; preds = %.lr.ph27.i
  %indvars.iv.next31.i = add nuw nsw i64 %indvars.iv30.i, 1
  %exitcond.not = icmp eq i64 %indvars.iv.next31.i, %wide.trip.count
  br i1 %exitcond.not, label %_ZN3url12_GLOBAL__N_115DoExtractSchemeItEEbPKT_iPNS_9ComponentE.exit, label %.lr.ph27.i, !llvm.loop !28

_ZN3url12_GLOBAL__N_115DoExtractSchemeItEEbPKT_iPNS_9ComponentE.exit: ; preds = %8, %17, %.critedge.i, %14
  %.0.i = phi i1 [ false, %.critedge.i ], [ true, %14 ], [ false, %17 ], [ false, %8 ]
  ret i1 %.0.i
}